target datalayout = "e-m:e-p270:32:32-p271:32:32-p272:64:64-i64:64-i128:128-f80:128-n8:16:32:64-S128"
target triple = "x86_64-pc-linux-gnu"

%struct._asn1_ctx_t = type { i32, i32, i8, ptr, ptr, ptr, ptr, ptr, %struct.anon.1, %struct.anon.4, %struct.anon.5, ptr }
%struct.anon.1 = type { i32, i8, i8, i8, ptr, ptr, i32, i32, ptr, ptr, ptr, %union.anon }
%union.anon = type { %struct.anon.2 }
%struct.anon.2 = type { ptr }
%struct.anon.4 = type { ptr, ptr, ptr }
%struct.anon.5 = type { i32, i8, ptr, i32, i32, ptr, ptr, ptr, %union.anon.6 }
%union.anon.6 = type { %struct.anon.7 }
%struct.anon.7 = type { ptr }

@camel_obj_id = hidden global ptr null, align 8
@is_ExtensionField = hidden global i8 0, align 1

; Function Attrs: null_pointer_is_valid sspstrong uwtable
define internal i32 @dissect_camel_T_value(i1 noundef zeroext %0, ptr noundef %1, i32 noundef %2, ptr noundef %3, ptr noundef %4, i32 noundef %5) #0 {
  %7 = alloca i8, align 1
  %8 = alloca ptr, align 8
  %9 = alloca i32, align 4
  %10 = alloca ptr, align 8
  %11 = alloca ptr, align 8
  %12 = alloca i32, align 4
  %13 = zext i1 %0 to i8
  store i8 %13, ptr %7, align 1
  store ptr %1, ptr %8, align 8
  store i32 %2, ptr %9, align 4
  store ptr %3, ptr %10, align 8
  store ptr %4, ptr %11, align 8
  store i32 %5, ptr %12, align 4
  %14 = load ptr, ptr @camel_obj_id, align 8
  %15 = icmp ne ptr %14, null
  br i1 %15, label %16, label %25

16:                                               ; preds = %6
  %17 = load ptr, ptr @camel_obj_id, align 8
  %18 = load ptr, ptr %8, align 8
  %19 = load i32, ptr %9, align 4
  %20 = load ptr, ptr %10, align 8
  %21 = getelementptr inbounds nuw %struct._asn1_ctx_t, ptr %20, i32 0, i32 3
  %22 = load ptr, ptr %21, align 8
  %23 = load ptr, ptr %11, align 8
  %24 = call i32 @call_ber_oid_callback(ptr noundef %17, ptr noundef %18, i32 noundef %19, ptr noundef %22, ptr noundef %23, ptr noundef null)
  store i32 %24, ptr %9, align 4
  br label %25

25:                                               ; preds = %16, %6
  store i8 0, ptr @is_ExtensionField, align 1
  %26 = load i32, ptr %9, align 4
  ret i32 %26
}