; Function Attrs: null_pointer_is_valid sspstrong uwtable
define internal i32 @dissect_camel_T_value(i1 zeroext %0, ptr noundef %1, i32 noundef %2, ptr noundef readonly captures(none) %3, ptr noundef %4, i32 %5) #0 {
  %7 = load ptr, ptr @camel_obj_id, align 8
  %.not = icmp eq ptr %7, null
  br i1 %.not, label %12, label %8

8:                                                ; preds = %6
  %9 = getelementptr inbounds nuw i8, ptr %3, i64 16
  %10 = load ptr, ptr %9, align 8
  %11 = tail call i32 @call_ber_oid_callback(ptr noundef nonnull %7, ptr noundef %1, i32 noundef %2, ptr noundef %10, ptr noundef %4, ptr noundef null)
  br label %12

12:                                               ; preds = %8, %6
  %.0 = phi i32 [ %11, %8 ], [ %2, %6 ]
  store i8 0, ptr @is_ExtensionField, align 1
  ret i32 %.0
}